target datalayout = "e-m:e-p270:32:32-p271:32:32-p272:64:64-i64:64-i128:128-f80:128-n8:16:32:64-S128"
target triple = "x86_64-pc-linux-gnu"

%struct.H5S_t = type { %struct.H5S_extent_t, %struct.H5S_select_t }
%struct.H5S_extent_t = type { %struct.H5O_shared_t, i32, i32, i64, i32, ptr, ptr }
%struct.H5O_shared_t = type { i32, ptr, i32, %union.anon }
%union.anon = type { %struct.H5O_mesg_loc_t }
%struct.H5O_mesg_loc_t = type { i32, i64 }
%struct.H5S_select_t = type { ptr, i8, [32 x i64], i64, %union.anon.0 }
%union.anon.0 = type { ptr }

@H5S_init_g = external global i8, align 1
@H5_libterm_g = external global i8, align 1
@.str = private unnamed_addr constant [102 x i8] c"generated/home/dtcxzyw/WorkSpace/Projects/compilers/llvm-opt-benchmark/bench/hdf5/hdf5/src/H5Spoint.c\00", align 1
@H5E_DATASPACE_g = external global i64, align 8
@H5E_CANTCOPY_g = external global i64, align 8
@.str.16 = private unnamed_addr constant [22 x i8] c"can't copy point list\00", align 1
@__func__.H5S__point_copy = private unnamed_addr constant [16 x i8] c"H5S__point_copy\00", align 1

; Function Attrs: nounwind uwtable
define internal i32 @H5S__point_copy(ptr noundef %0, ptr noundef %1, i1 noundef zeroext %2) #0 {
  %4 = alloca ptr, align 8
  %5 = alloca ptr, align 8
  %6 = alloca i8, align 1
  %7 = alloca i32, align 4
  %8 = alloca i8, align 1
  store ptr %0, ptr %4, align 8, !tbaa !3
  store ptr %1, ptr %5, align 8, !tbaa !3
  %9 = zext i1 %2 to i8
  store i8 %9, ptr %6, align 1, !tbaa !8
  call void @llvm.lifetime.start.p0(i64 4, ptr %7) #7
  store i32 0, ptr %7, align 4, !tbaa !10
  call void @llvm.lifetime.start.p0(i64 1, ptr %8) #7
  store i8 0, ptr %8, align 1, !tbaa !8
  %10 = load i8, ptr @H5S_init_g, align 1, !tbaa !8, !range !12, !noundef !13
  %11 = trunc i8 %10 to i1
  br i1 %11, label %16, label %12

12:                                               ; preds = %3
  %13 = load i8, ptr @H5_libterm_g, align 1, !tbaa !8, !range !12, !noundef !13
  %14 = trunc i8 %13 to i1
  %15 = xor i1 %14, true
  br label %16

16:                                               ; preds = %12, %3
  %17 = phi i1 [ true, %3 ], [ %15, %12 ]
  %18 = xor i1 %17, true
  %19 = xor i1 %18, true
  %20 = zext i1 %19 to i32
  %21 = sext i32 %20 to i64
  %22 = call i64 @llvm.expect.i64(i64 %21, i64 1)
  %23 = icmp ne i64 %22, 0
  br i1 %23, label %24, label %59

24:                                               ; preds = %16
  %25 = load ptr, ptr %5, align 8, !tbaa !3
  %26 = getelementptr inbounds nuw %struct.H5S_t, ptr %25, i32 0, i32 1
  %27 = getelementptr inbounds nuw %struct.H5S_select_t, ptr %26, i32 0, i32 4
  %28 = load ptr, ptr %27, align 8, !tbaa !14
  %29 = load ptr, ptr %5, align 8, !tbaa !3
  %30 = getelementptr inbounds nuw %struct.H5S_t, ptr %29, i32 0, i32 0
  %31 = getelementptr inbounds nuw %struct.H5S_extent_t, ptr %30, i32 0, i32 4
  %32 = load i32, ptr %31, align 8, !tbaa !15
  %33 = call ptr @H5S__copy_pnt_list(ptr noundef %28, i32 noundef %32)
  %34 = load ptr, ptr %4, align 8, !tbaa !3
  %35 = getelementptr inbounds nuw %struct.H5S_t, ptr %34, i32 0, i32 1
  %36 = getelementptr inbounds nuw %struct.H5S_select_t, ptr %35, i32 0, i32 4
  store ptr %33, ptr %36, align 8, !tbaa !14
  %37 = icmp eq ptr null, %33
  br i1 %37, label %38, label %57

38:                                               ; preds = %24
  br label %39

39:                                               ; preds = %38
  br label %40

40:                                               ; preds = %39
  br label %41

41:                                               ; preds = %40
  %42 = load i64, ptr @H5E_DATASPACE_g, align 8, !tbaa !23
  %43 = load i64, ptr @H5E_CANTCOPY_g, align 8, !tbaa !23
  %44 = call i32 (ptr, ptr, i32, i64, i64, ptr, ...) @H5E_printf_stack(ptr noundef @.str, ptr noundef @__func__.H5S__point_copy, i32 noundef 933, i64 noundef %42, i64 noundef %43, ptr noundef @.str.16)
  br label %45

45:                                               ; preds = %41
  br label %46

46:                                               ; preds = %45
  store i8 1, ptr %8, align 1, !tbaa !8
  %47 = load i8, ptr %8, align 1, !tbaa !8, !range !12, !noundef !13
  %48 = trunc i8 %47 to i1
  %49 = zext i1 %48 to i8
  store i8 %49, ptr %8, align 1, !tbaa !8
  br label %50

50:                                               ; preds = %46
  br label %51

51:                                               ; preds = %50
  br label %52

52:                                               ; preds = %51
  store i32 -1, ptr %7, align 4, !tbaa !10
  br label %58

53:                                               ; No predecessors!
  br label %54

54:                                               ; preds = %53
  br label %55

55:                                               ; preds = %54
  br label %56

56:                                               ; preds = %55
  br label %57

57:                                               ; preds = %56, %24
  br label %58

58:                                               ; preds = %57, %52
  br label %59

59:                                               ; preds = %58, %16
  %60 = load i32, ptr %7, align 4, !tbaa !10
  call void @llvm.lifetime.end.p0(i64 1, ptr %8) #7
  call void @llvm.lifetime.end.p0(i64 4, ptr %7) #7
  ret i32 %60
}