; Function Attrs: nounwind uwtable
define internal range(i32 -1, 1) i32 @H5S__point_copy(ptr noundef writeonly captures(none) %0, ptr noundef readonly captures(none) %1, i1 zeroext %2) #0 {
  %4 = load i8, ptr @H5S_init_g, align 1, !tbaa !3, !range !7, !noundef !8
  %5 = trunc nuw i8 %4 to i1
  %6 = load i8, ptr @H5_libterm_g, align 1, !range !7
  %7 = trunc nuw i8 %6 to i1
  %8 = xor i1 %7, true
  %9 = select i1 %5, i1 true, i1 %8
  br i1 %9, label %10, label %22, !prof !9

10:                                               ; preds = %3
  %11 = getelementptr inbounds nuw i8, ptr %1, i64 360
  %12 = load ptr, ptr %11, align 8, !tbaa !10
  %13 = getelementptr inbounds nuw i8, ptr %1, i64 56
  %14 = load i32, ptr %13, align 8, !tbaa !11
  %15 = tail call fastcc ptr @H5S__copy_pnt_list(ptr noundef %12, i32 noundef %14)
  %16 = getelementptr inbounds nuw i8, ptr %0, i64 360
  store ptr %15, ptr %16, align 8, !tbaa !10
  %17 = icmp eq ptr %15, null
  br i1 %17, label %18, label %22

18:                                               ; preds = %10
  %19 = load i64, ptr @H5E_DATASPACE_g, align 8, !tbaa !21
  %20 = load i64, ptr @H5E_CANTCOPY_g, align 8, !tbaa !21
  %21 = tail call i32 (ptr, ptr, i32, i64, i64, ptr, ...) @H5E_printf_stack(ptr noundef nonnull @.str, ptr noundef nonnull @__func__.H5S__point_copy, i32 noundef 933, i64 noundef %19, i64 noundef %20, ptr noundef nonnull @.str.16) #15
  br label %22

22:                                               ; preds = %18, %10, %3
  %.0 = phi i32 [ -1, %18 ], [ 0, %10 ], [ 0, %3 ]
  ret i32 %.0
}